target datalayout = "e-m:e-p270:32:32-p271:32:32-p272:64:64-i64:64-i128:128-f80:128-n8:16:32:64-S128"
target triple = "x86_64-pc-linux-gnu"

%"struct.std::nothrow_t" = type { i8 }
%"class.marisa::Trie" = type { %"class.marisa::scoped_ptr" }
%"class.marisa::scoped_ptr" = type { ptr }
%"class.marisa::Exception" = type { %"class.std::exception", ptr, i32, i32, ptr }
%"class.std::exception" = type { ptr }

@_ZSt7nothrow = external global %"struct.std::nothrow_t", align 1
@.str = private unnamed_addr constant [128 x i8] c"generated/home/dtcxzyw/WorkSpace/Projects/compilers/llvm-opt-benchmark/bench/opencc/OpenCC/deps/marisa-0.2.6/lib/marisa/trie.cc\00", align 1
@.str.1 = private unnamed_addr constant [172 x i8] c"generated/home/dtcxzyw/WorkSpace/Projects/compilers/llvm-opt-benchmark/bench/opencc/OpenCC/deps/marisa-0.2.6/lib/marisa/trie.cc:14: MARISA_MEMORY_ERROR: temp.get() == NULL\00", align 1
@_ZTIN6marisa9ExceptionE = linkonce_odr constant { ptr, ptr, ptr } { ptr getelementptr inbounds (ptr, ptr @_ZTVN10__cxxabiv120__si_class_type_infoE, i64 2), ptr @_ZTSN6marisa9ExceptionE, ptr @_ZTISt9exception }, comdat, align 8
@_ZTVN6marisa9ExceptionE = linkonce_odr unnamed_addr constant { [5 x ptr] } { [5 x ptr] [ptr null, ptr @_ZTIN6marisa9ExceptionE, ptr @_ZNSt9exceptionD2Ev, ptr @_ZN6marisa9ExceptionD0Ev, ptr @_ZNK6marisa9Exception4whatEv] }, comdat, align 8
@_ZTVSt9exception = available_externally unnamed_addr constant { [5 x ptr] } { [5 x ptr] [ptr null, ptr @_ZTISt9exception, ptr @_ZNSt9exceptionD1Ev, ptr @_ZNSt9exceptionD0Ev, ptr @_ZNKSt9exception4whatEv] }, align 8

; Function Attrs: inlinehint mustprogress nounwind uwtable
define linkonce_odr void @_ZSt4swapIPN6marisa8grimoire4trie9LoudsTrieEENSt9enable_ifIXsr6__and_ISt6__not_ISt15__is_tuple_likeIT_EESt21is_move_constructibleIS8_ESt18is_move_assignableIS8_EEE5valueEvE4typeERS8_SH_(ptr noundef nonnull align 8 dereferenceable(8) %0, ptr noundef nonnull align 8 dereferenceable(8) %1) #9 comdat {
  %3 = alloca ptr, align 8
  %4 = alloca ptr, align 8
  %5 = alloca ptr, align 8
  store ptr %0, ptr %3, align 8, !tbaa !72
  store ptr %1, ptr %4, align 8, !tbaa !72
  call void @llvm.lifetime.start.p0(i64 8, ptr %5) #3
  %6 = load ptr, ptr %3, align 8, !tbaa !72
  %7 = load ptr, ptr %6, align 8, !tbaa !17
  store ptr %7, ptr %5, align 8, !tbaa !17
  %8 = load ptr, ptr %4, align 8, !tbaa !72
  %9 = load ptr, ptr %8, align 8, !tbaa !17
  %10 = load ptr, ptr %3, align 8, !tbaa !72
  store ptr %9, ptr %10, align 8, !tbaa !17
  %11 = load ptr, ptr %5, align 8, !tbaa !17
  %12 = load ptr, ptr %4, align 8, !tbaa !72
  store ptr %11, ptr %12, align 8, !tbaa !17
  call void @llvm.lifetime.end.p0(i64 8, ptr %5) #3
  ret void
}

; Function Attrs: mustprogress nounwind uwtable
define linkonce_odr void @_ZNSt9exceptionC2Ev(ptr noundef nonnull align 8 dereferenceable(8) %0) unnamed_addr #5 comdat align 2 {
  %2 = alloca ptr, align 8
  store ptr %0, ptr %2, align 8, !tbaa !43
  %3 = load ptr, ptr %2, align 8
  store ptr getelementptr inbounds inrange(-16, 24) ({ [5 x ptr] }, ptr @_ZTVSt9exception, i32 0, i32 0, i32 2), ptr %3, align 8, !tbaa !24
  ret void
}

; Function Attrs: mustprogress nounwind uwtable
define linkonce_odr void @_ZN6marisa10scoped_ptrINS_8grimoire4trie9LoudsTrieEE4swapERS4_(ptr noundef nonnull align 8 dereferenceable(8) %0, ptr noundef nonnull align 8 dereferenceable(8) %1) #5 comdat align 2 {
  %3 = alloca ptr, align 8
  %4 = alloca ptr, align 8
  store ptr %0, ptr %3, align 8, !tbaa !8
  store ptr %1, ptr %4, align 8, !tbaa !8
  %5 = load ptr, ptr %3, align 8
  %6 = getelementptr inbounds nuw %"class.marisa::scoped_ptr", ptr %5, i32 0, i32 0
  %7 = load ptr, ptr %4, align 8, !tbaa !8
  %8 = getelementptr inbounds nuw %"class.marisa::scoped_ptr", ptr %7, i32 0, i32 0
  call void @_ZSt4swapIPN6marisa8grimoire4trie9LoudsTrieEENSt9enable_ifIXsr6__and_ISt6__not_ISt15__is_tuple_likeIT_EESt21is_move_constructibleIS8_ESt18is_move_assignableIS8_EEE5valueEvE4typeERS8_SH_(ptr noundef nonnull align 8 dereferenceable(8) %6, ptr noundef nonnull align 8 dereferenceable(8) %8) #3
  ret void
}

; Function Attrs: mustprogress nounwind uwtable
define linkonce_odr noundef ptr @_ZNK6marisa10scoped_ptrINS_8grimoire4trie9LoudsTrieEEptEv(ptr noundef nonnull align 8 dereferenceable(8) %0) #5 comdat align 2 {
  %2 = alloca ptr, align 8
  store ptr %0, ptr %2, align 8, !tbaa !8
  %3 = load ptr, ptr %2, align 8
  %4 = getelementptr inbounds nuw %"class.marisa::scoped_ptr", ptr %3, i32 0, i32 0
  %5 = load ptr, ptr %4, align 8, !tbaa !10
  ret ptr %5
}

; Function Attrs: mustprogress nounwind uwtable
define linkonce_odr void @_ZN6marisa9ExceptionC2EPKci18marisa_error_code_S2_(ptr noundef nonnull align 8 dereferenceable(32) %0, ptr noundef %1, i32 noundef %2, i32 noundef %3, ptr noundef %4) unnamed_addr #5 comdat align 2 {
  %6 = alloca ptr, align 8
  %7 = alloca ptr, align 8
  %8 = alloca i32, align 4
  %9 = alloca i32, align 4
  %10 = alloca ptr, align 8
  store ptr %0, ptr %6, align 8, !tbaa !18
  store ptr %1, ptr %7, align 8, !tbaa !20
  store i32 %2, ptr %8, align 4, !tbaa !15
  store i32 %3, ptr %9, align 4, !tbaa !22
  store ptr %4, ptr %10, align 8, !tbaa !20
  %11 = load ptr, ptr %6, align 8
  call void @_ZNSt9exceptionC2Ev(ptr noundef nonnull align 8 dereferenceable(8) %11) #3
  store ptr getelementptr inbounds inrange(-16, 24) ({ [5 x ptr] }, ptr @_ZTVN6marisa9ExceptionE, i32 0, i32 0, i32 2), ptr %11, align 8, !tbaa !24
  %12 = getelementptr inbounds nuw %"class.marisa::Exception", ptr %11, i32 0, i32 1
  %13 = load ptr, ptr %7, align 8, !tbaa !20
  store ptr %13, ptr %12, align 8, !tbaa !26
  %14 = getelementptr inbounds nuw %"class.marisa::Exception", ptr %11, i32 0, i32 2
  %15 = load i32, ptr %8, align 4, !tbaa !15
  store i32 %15, ptr %14, align 8, !tbaa !29
  %16 = getelementptr inbounds nuw %"class.marisa::Exception", ptr %11, i32 0, i32 3
  %17 = load i32, ptr %9, align 4, !tbaa !22
  store i32 %17, ptr %16, align 4, !tbaa !30
  %18 = getelementptr inbounds nuw %"class.marisa::Exception", ptr %11, i32 0, i32 4
  %19 = load ptr, ptr %10, align 8, !tbaa !20
  store ptr %19, ptr %18, align 8, !tbaa !31
  ret void
}

; Function Attrs: mustprogress nounwind uwtable
define linkonce_odr noundef ptr @_ZNK6marisa10scoped_ptrINS_8grimoire4trie9LoudsTrieEE3getEv(ptr noundef nonnull align 8 dereferenceable(8) %0) #5 comdat align 2 {
  %2 = alloca ptr, align 8
  store ptr %0, ptr %2, align 8, !tbaa !8
  %3 = load ptr, ptr %2, align 8
  %4 = getelementptr inbounds nuw %"class.marisa::scoped_ptr", ptr %3, i32 0, i32 0
  %5 = load ptr, ptr %4, align 8, !tbaa !10
  ret ptr %5
}

; Function Attrs: mustprogress nounwind uwtable
define linkonce_odr void @_ZN6marisa10scoped_ptrINS_8grimoire4trie9LoudsTrieEEC2EPS3_(ptr noundef nonnull align 8 dereferenceable(8) %0, ptr noundef %1) unnamed_addr #5 comdat align 2 {
  %3 = alloca ptr, align 8
  %4 = alloca ptr, align 8
  store ptr %0, ptr %3, align 8, !tbaa !8
  store ptr %1, ptr %4, align 8, !tbaa !17
  %5 = load ptr, ptr %3, align 8
  %6 = getelementptr inbounds nuw %"class.marisa::scoped_ptr", ptr %5, i32 0, i32 0
  %7 = load ptr, ptr %4, align 8, !tbaa !17
  store ptr %7, ptr %6, align 8, !tbaa !10
  ret void
}

; Function Attrs: mustprogress uwtable
define void @_ZN6marisa4Trie5buildERNS_6KeysetEi(ptr noundef nonnull align 8 dereferenceable(8) %0, ptr noundef nonnull align 8 dereferenceable(104) %1, i32 noundef %2) #4 align 2 personality ptr @__gxx_personality_v0 {
  %4 = alloca ptr, align 8
  %5 = alloca ptr, align 8
  %6 = alloca i32, align 4
  %7 = alloca %"class.marisa::scoped_ptr", align 8
  %8 = alloca i1, align 1
  %9 = alloca ptr, align 8
  %10 = alloca i32, align 4
  %11 = alloca ptr, align 8
  %12 = alloca i1, align 1
  store ptr %0, ptr %4, align 8, !tbaa !3
  store ptr %1, ptr %5, align 8, !tbaa !13
  store i32 %2, ptr %6, align 4, !tbaa !15
  %13 = load ptr, ptr %4, align 8
  call void @llvm.lifetime.start.p0(i64 8, ptr %7) #3
  %14 = call noalias noundef ptr @_ZnwmRKSt9nothrow_t(i64 noundef 1136, ptr noundef nonnull align 1 dereferenceable(1) @_ZSt7nothrow) #11
  %15 = icmp eq ptr %14, null
  store i1 false, ptr %8, align 1
  br i1 %15, label %18, label %16

16:                                               ; preds = %3
  store i1 true, ptr %8, align 1
  invoke void @_ZN6marisa8grimoire4trie9LoudsTrieC1Ev(ptr noundef nonnull align 8 dereferenceable(1136) %14)
          to label %17 unwind label %35

17:                                               ; preds = %16
  br label %18

18:                                               ; preds = %17, %3
  %19 = phi ptr [ %14, %17 ], [ null, %3 ]
  call void @_ZN6marisa10scoped_ptrINS_8grimoire4trie9LoudsTrieEEC2EPS3_(ptr noundef nonnull align 8 dereferenceable(8) %7, ptr noundef %19)
  store i1 false, ptr %12, align 1
  %20 = invoke noundef ptr @_ZNK6marisa10scoped_ptrINS_8grimoire4trie9LoudsTrieEE3getEv(ptr noundef nonnull align 8 dereferenceable(8) %7)
          to label %21 unwind label %42

21:                                               ; preds = %18
  %22 = icmp eq ptr %20, null
  br i1 %22, label %23, label %27

23:                                               ; preds = %21
  %24 = call ptr @__cxa_allocate_exception(i64 32) #3
  store ptr %24, ptr %11, align 8
  store i1 true, ptr %12, align 1
  invoke void @_ZN6marisa9ExceptionC2EPKci18marisa_error_code_S2_(ptr noundef nonnull align 8 dereferenceable(32) %24, ptr noundef @.str, i32 noundef 14, i32 noundef 8, ptr noundef @.str.1)
          to label %25 unwind label %46

25:                                               ; preds = %23
  invoke void @__cxa_throw(ptr %24, ptr @_ZTIN6marisa9ExceptionE, ptr @_ZNSt9exceptionD2Ev) #12
          to label %61 unwind label %42

26:                                               ; No predecessors!
  br label %27

27:                                               ; preds = %26, %21
  %28 = invoke noundef ptr @_ZNK6marisa10scoped_ptrINS_8grimoire4trie9LoudsTrieEEptEv(ptr noundef nonnull align 8 dereferenceable(8) %7)
          to label %29 unwind label %42

29:                                               ; preds = %27
  %30 = load ptr, ptr %5, align 8, !tbaa !13
  %31 = load i32, ptr %6, align 4, !tbaa !15
  invoke void @_ZN6marisa8grimoire4trie9LoudsTrie5buildERNS_6KeysetEi(ptr noundef nonnull align 8 dereferenceable(1136) %28, ptr noundef nonnull align 8 dereferenceable(104) %30, i32 noundef %31)
          to label %32 unwind label %42

32:                                               ; preds = %29
  %33 = getelementptr inbounds nuw %"class.marisa::Trie", ptr %13, i32 0, i32 0
  invoke void @_ZN6marisa10scoped_ptrINS_8grimoire4trie9LoudsTrieEE4swapERS4_(ptr noundef nonnull align 8 dereferenceable(8) %33, ptr noundef nonnull align 8 dereferenceable(8) %7)
          to label %34 unwind label %42

34:                                               ; preds = %32
  call void @_ZN6marisa10scoped_ptrINS_8grimoire4trie9LoudsTrieEED2Ev(ptr noundef nonnull align 8 dereferenceable(8) %7) #3
  call void @llvm.lifetime.end.p0(i64 8, ptr %7) #3
  ret void

35:                                               ; preds = %16
  %36 = landingpad { ptr, i32 }
          cleanup
  %37 = extractvalue { ptr, i32 } %36, 0
  store ptr %37, ptr %9, align 8
  %38 = extractvalue { ptr, i32 } %36, 1
  store i32 %38, ptr %10, align 4
  %39 = load i1, ptr %8, align 1
  br i1 %39, label %40, label %41

40:                                               ; preds = %35
  call void @_ZdlPvRKSt9nothrow_t(ptr noundef %14, ptr noundef nonnull align 1 dereferenceable(1) @_ZSt7nothrow) #10
  br label %41

41:                                               ; preds = %40, %35
  br label %55

42:                                               ; preds = %32, %29, %27, %25, %18
  %43 = landingpad { ptr, i32 }
          cleanup
  %44 = extractvalue { ptr, i32 } %43, 0
  store ptr %44, ptr %9, align 8
  %45 = extractvalue { ptr, i32 } %43, 1
  store i32 %45, ptr %10, align 4
  br label %54

46:                                               ; preds = %23
  %47 = landingpad { ptr, i32 }
          cleanup
  %48 = extractvalue { ptr, i32 } %47, 0
  store ptr %48, ptr %9, align 8
  %49 = extractvalue { ptr, i32 } %47, 1
  store i32 %49, ptr %10, align 4
  %50 = load i1, ptr %12, align 1
  br i1 %50, label %51, label %53

51:                                               ; preds = %46
  %52 = load ptr, ptr %11, align 8
  call void @__cxa_free_exception(ptr %52) #3
  br label %53

53:                                               ; preds = %51, %46
  br label %54

54:                                               ; preds = %53, %42
  call void @_ZN6marisa10scoped_ptrINS_8grimoire4trie9LoudsTrieEED2Ev(ptr noundef nonnull align 8 dereferenceable(8) %7) #3
  br label %55

55:                                               ; preds = %54, %41
  call void @llvm.lifetime.end.p0(i64 8, ptr %7) #3
  br label %56

56:                                               ; preds = %55
  %57 = load ptr, ptr %9, align 8
  %58 = load i32, ptr %10, align 4
  %59 = insertvalue { ptr, i32 } poison, ptr %57, 0
  %60 = insertvalue { ptr, i32 } %59, i32 %58, 1
  resume { ptr, i32 } %60

61:                                               ; preds = %25
  unreachable
}