; Function Attrs: mustprogress uwtable
define void @_ZN6marisa4Trie5buildERNS_6KeysetEi(ptr noundef nonnull align 8 captures(none) dereferenceable(8) %0, ptr noundef nonnull align 8 dereferenceable(104) %1, i32 noundef %2) local_unnamed_addr #5 align 2 personality ptr @__gxx_personality_v0 {
  %4 = alloca %"class.marisa::scoped_ptr", align 8
  call void @llvm.lifetime.start.p0(i64 8, ptr nonnull %4) #12
  %5 = tail call noalias noundef dereferenceable_or_null(1136) ptr @_ZnwmRKSt9nothrow_t(i64 noundef 1136, ptr noundef nonnull align 1 dereferenceable(1) @_ZSt7nothrow) #14
  %6 = icmp eq ptr %5, null
  br i1 %6, label %8, label %7

7:                                                ; preds = %3
  invoke void @_ZN6marisa8grimoire4trie9LoudsTrieC1Ev(ptr noundef nonnull align 8 dereferenceable(1136) %5)
          to label %14 unwind label %19

8:                                                ; preds = %3
  store ptr null, ptr %4, align 8, !tbaa !3
  %9 = tail call ptr @__cxa_allocate_exception(i64 32) #12
  store ptr getelementptr inbounds nuw inrange(-16, 24) (i8, ptr @_ZTVN6marisa9ExceptionE, i64 16), ptr %9, align 8, !tbaa !9
  %10 = getelementptr inbounds nuw i8, ptr %9, i64 8
  store ptr @.str, ptr %10, align 8, !tbaa !11
  %11 = getelementptr inbounds nuw i8, ptr %9, i64 16
  store i32 14, ptr %11, align 8, !tbaa !17
  %12 = getelementptr inbounds nuw i8, ptr %9, i64 20
  store i32 8, ptr %12, align 4, !tbaa !18
  %13 = getelementptr inbounds nuw i8, ptr %9, i64 24
  store ptr @.str.1, ptr %13, align 8, !tbaa !19
  invoke void @__cxa_throw(ptr nonnull %9, ptr nonnull @_ZTIN6marisa9ExceptionE, ptr nonnull @_ZNSt9exceptionD2Ev) #15
          to label %24 unwind label %21

14:                                               ; preds = %7
  store ptr %5, ptr %4, align 8, !tbaa !3
  invoke void @_ZN6marisa8grimoire4trie9LoudsTrie5buildERNS_6KeysetEi(ptr noundef nonnull align 8 dereferenceable(1136) %5, ptr noundef nonnull align 8 dereferenceable(104) %1, i32 noundef %2)
          to label %15 unwind label %21

15:                                               ; preds = %14
  %16 = load ptr, ptr %0, align 8, !tbaa !20
  store ptr %5, ptr %0, align 8, !tbaa !20
  %17 = icmp eq ptr %16, null
  br i1 %17, label %_ZN6marisa10scoped_ptrINS_8grimoire4trie9LoudsTrieEED2Ev.exit, label %18

18:                                               ; preds = %15
  tail call void @_ZN6marisa8grimoire4trie9LoudsTrieD1Ev(ptr noundef nonnull align 8 dereferenceable(1136) %16) #12
  tail call void @_ZdlPvm(ptr noundef nonnull %16, i64 noundef 1136) #13
  br label %_ZN6marisa10scoped_ptrINS_8grimoire4trie9LoudsTrieEED2Ev.exit

_ZN6marisa10scoped_ptrINS_8grimoire4trie9LoudsTrieEED2Ev.exit: ; preds = %15, %18
  call void @llvm.lifetime.end.p0(i64 8, ptr nonnull %4) #12
  ret void

19:                                               ; preds = %7
  %20 = landingpad { ptr, i32 }
          cleanup
  tail call void @_ZdlPvRKSt9nothrow_t(ptr noundef nonnull %5, ptr noundef nonnull align 1 dereferenceable(1) @_ZSt7nothrow) #13
  br label %23

21:                                               ; preds = %14, %8
  %22 = landingpad { ptr, i32 }
          cleanup
  call void @_ZN6marisa10scoped_ptrINS_8grimoire4trie9LoudsTrieEED2Ev(ptr noundef nonnull align 8 dereferenceable(8) %4) #12
  br label %23

23:                                               ; preds = %19, %21
  %.pn = phi { ptr, i32 } [ %22, %21 ], [ %20, %19 ]
  call void @llvm.lifetime.end.p0(i64 8, ptr nonnull %4) #12
  resume { ptr, i32 } %.pn

24:                                               ; preds = %8
  unreachable
}